; Function Attrs: mustprogress uwtable
define noundef i32 @_ZNK6casadi4MMin7eval_sxEPPKNS_6SXElemEPPS1_PxS5_(ptr noundef nonnull readonly align 8 captures(none) dereferenceable(64) %0, ptr noundef readonly captures(none) %1, ptr noundef readonly captures(none) %2, ptr readnone captures(none) %3, ptr readnone captures(none) %4) unnamed_addr #3 align 2 personality ptr @__gxx_personality_v0 {
  %6 = alloca %"class.casadi::SXElem", align 8
  %7 = load ptr, ptr %2, align 8, !tbaa !37
  %.not = icmp eq ptr %7, null
  br i1 %.not, label %28, label %8

8:                                                ; preds = %5
  call void @llvm.lifetime.start.p0(i64 8, ptr nonnull %6) #20
  %9 = load ptr, ptr %1, align 8, !tbaa !37
  %10 = getelementptr inbounds nuw i8, ptr %0, i64 32
  %11 = getelementptr inbounds nuw i8, ptr %0, i64 40
  %12 = load ptr, ptr %11, align 8, !tbaa !28
  %13 = load ptr, ptr %10, align 8, !tbaa !31
  %.not.i.i.i.not = icmp eq ptr %12, %13
  br i1 %.not.i.i.i.not, label %14, label %_ZNK6casadi6MXNode3depEx.exit

14:                                               ; preds = %8
  tail call void (ptr, ...) @_ZSt24__throw_out_of_range_fmtPKcz(ptr noundef nonnull @.str.5, i64 noundef 0, i64 noundef 0) #22
  unreachable

_ZNK6casadi6MXNode3depEx.exit:                    ; preds = %8
  %15 = tail call noundef nonnull align 8 dereferenceable(8) ptr @_ZNK6casadi2MX8sparsityEv(ptr noundef nonnull align 8 dereferenceable(8) %13)
  %16 = tail call noundef i64 @_ZNK6casadi8Sparsity3nnzEv(ptr noundef nonnull align 8 dereferenceable(8) %15)
  %17 = load ptr, ptr %11, align 8, !tbaa !28
  %18 = load ptr, ptr %10, align 8, !tbaa !31
  %.not.i.i.i6.not = icmp eq ptr %17, %18
  br i1 %.not.i.i.i6.not, label %19, label %_ZNK6casadi6MXNode3depEx.exit7

19:                                               ; preds = %_ZNK6casadi6MXNode3depEx.exit
  tail call void (ptr, ...) @_ZSt24__throw_out_of_range_fmtPKcz(ptr noundef nonnull @.str.5, i64 noundef 0, i64 noundef 0) #22
  unreachable

_ZNK6casadi6MXNode3depEx.exit7:                   ; preds = %_ZNK6casadi6MXNode3depEx.exit
  %20 = tail call noundef nonnull align 8 dereferenceable(8) ptr @_ZNK6casadi2MX8sparsityEv(ptr noundef nonnull align 8 dereferenceable(8) %18)
  %21 = tail call noundef zeroext i1 @_ZNK6casadi8Sparsity8is_denseEv(ptr noundef nonnull align 8 dereferenceable(8) %20)
  %22 = zext i1 %21 to i64
  call void @_ZN6casadi11casadi_mminINS_6SXElemEEET_PKS2_xx(ptr dead_on_unwind nonnull writable sret(%"class.casadi::SXElem") align 8 %6, ptr noundef %9, i64 noundef %16, i64 noundef %22)
  %23 = load ptr, ptr %2, align 8, !tbaa !37
  %24 = invoke noundef nonnull align 8 dereferenceable(8) ptr @_ZN6casadi6SXElemaSERKS0_(ptr noundef nonnull align 8 dereferenceable(8) %23, ptr noundef nonnull align 8 dereferenceable(8) %6)
          to label %25 unwind label %26

25:                                               ; preds = %_ZNK6casadi6MXNode3depEx.exit7
  call void @_ZN6casadi6SXElemD1Ev(ptr noundef nonnull align 8 dereferenceable(8) %6) #20
  call void @llvm.lifetime.end.p0(i64 8, ptr nonnull %6) #20
  br label %28

26:                                               ; preds = %_ZNK6casadi6MXNode3depEx.exit7
  %27 = landingpad { ptr, i32 }
          cleanup
  call void @_ZN6casadi6SXElemD1Ev(ptr noundef nonnull align 8 dereferenceable(8) %6) #20
  call void @llvm.lifetime.end.p0(i64 8, ptr nonnull %6) #20
  resume { ptr, i32 } %27

28:                                               ; preds = %5, %25
  ret i32 0
}